target datalayout = "e-m:e-p270:32:32-p271:32:32-p272:64:64-i64:64-i128:128-f80:128-n8:16:32:64-S128"
target triple = "x86_64-pc-linux-gnu"

%struct.blake2s_state__ = type { [8 x i32], [2 x i32], [2 x i32], [64 x i8], i64, i64, i8 }

@secure_zero_memory.memset_v = internal constant ptr @memset, align 8

; Function Attrs: nounwind uwtable
define internal void @blake2s_set_lastnode(ptr noundef %0) #0 {
  %2 = alloca ptr, align 8
  store ptr %0, ptr %2, align 8, !tbaa !4
  %3 = load ptr, ptr %2, align 8, !tbaa !4
  %4 = getelementptr inbounds nuw %struct.blake2s_state__, ptr %3, i32 0, i32 2
  %5 = getelementptr inbounds [2 x i32], ptr %4, i64 0, i64 1
  store i32 -1, ptr %5, align 4, !tbaa !15
  ret void
}

; Function Attrs: inlinehint nounwind uwtable
define internal void @secure_zero_memory(ptr noundef %0, i64 noundef %1) #2 {
  %3 = alloca ptr, align 8
  %4 = alloca i64, align 8
  store ptr %0, ptr %3, align 8, !tbaa !25
  store i64 %1, ptr %4, align 8, !tbaa !13
  %5 = load volatile ptr, ptr @secure_zero_memory.memset_v, align 8, !tbaa !25
  %6 = load ptr, ptr %3, align 8, !tbaa !25
  %7 = load i64, ptr %4, align 8, !tbaa !13
  %8 = call ptr %5(ptr noundef %6, i32 noundef 0, i64 noundef %7)
  ret void
}

; Function Attrs: inlinehint nounwind uwtable
define internal void @store32(ptr noundef %0, i32 noundef %1) #2 {
  %3 = alloca ptr, align 8
  %4 = alloca i32, align 4
  %5 = alloca ptr, align 8
  store ptr %0, ptr %3, align 8, !tbaa !25
  store i32 %1, ptr %4, align 4, !tbaa !15
  call void @llvm.lifetime.start.p0(i64 8, ptr %5) #6
  %6 = load ptr, ptr %3, align 8, !tbaa !25
  store ptr %6, ptr %5, align 8, !tbaa !11
  %7 = load i32, ptr %4, align 4, !tbaa !15
  %8 = lshr i32 %7, 0
  %9 = trunc i32 %8 to i8
  %10 = load ptr, ptr %5, align 8, !tbaa !11
  %11 = getelementptr inbounds i8, ptr %10, i64 0
  store i8 %9, ptr %11, align 1, !tbaa !26
  %12 = load i32, ptr %4, align 4, !tbaa !15
  %13 = lshr i32 %12, 8
  %14 = trunc i32 %13 to i8
  %15 = load ptr, ptr %5, align 8, !tbaa !11
  %16 = getelementptr inbounds i8, ptr %15, i64 1
  store i8 %14, ptr %16, align 1, !tbaa !26
  %17 = load i32, ptr %4, align 4, !tbaa !15
  %18 = lshr i32 %17, 16
  %19 = trunc i32 %18 to i8
  %20 = load ptr, ptr %5, align 8, !tbaa !11
  %21 = getelementptr inbounds i8, ptr %20, i64 2
  store i8 %19, ptr %21, align 1, !tbaa !26
  %22 = load i32, ptr %4, align 4, !tbaa !15
  %23 = lshr i32 %22, 24
  %24 = trunc i32 %23 to i8
  %25 = load ptr, ptr %5, align 8, !tbaa !11
  %26 = getelementptr inbounds i8, ptr %25, i64 3
  store i8 %24, ptr %26, align 1, !tbaa !26
  call void @llvm.lifetime.end.p0(i64 8, ptr %5) #6
  ret void
}

; Function Attrs: nounwind uwtable
define internal void @blake2s_set_lastblock(ptr noundef %0) #0 {
  %2 = alloca ptr, align 8
  store ptr %0, ptr %2, align 8, !tbaa !4
  %3 = load ptr, ptr %2, align 8, !tbaa !4
  %4 = getelementptr inbounds nuw %struct.blake2s_state__, ptr %3, i32 0, i32 6
  %5 = load i8, ptr %4, align 8, !tbaa !39
  %6 = icmp ne i8 %5, 0
  br i1 %6, label %7, label %9

7:                                                ; preds = %1
  %8 = load ptr, ptr %2, align 8, !tbaa !4
  call void @blake2s_set_lastnode(ptr noundef %8)
  br label %9

9:                                                ; preds = %7, %1
  %10 = load ptr, ptr %2, align 8, !tbaa !4
  %11 = getelementptr inbounds nuw %struct.blake2s_state__, ptr %10, i32 0, i32 2
  %12 = getelementptr inbounds [2 x i32], ptr %11, i64 0, i64 0
  store i32 -1, ptr %12, align 8, !tbaa !15
  ret void
}

; Function Attrs: nounwind uwtable
define internal void @blake2s_increment_counter(ptr noundef %0, i32 noundef %1) #0 {
  %3 = alloca ptr, align 8
  %4 = alloca i32, align 4
  store ptr %0, ptr %3, align 8, !tbaa !4
  store i32 %1, ptr %4, align 4, !tbaa !15
  %5 = load i32, ptr %4, align 4, !tbaa !15
  %6 = load ptr, ptr %3, align 8, !tbaa !4
  %7 = getelementptr inbounds nuw %struct.blake2s_state__, ptr %6, i32 0, i32 1
  %8 = getelementptr inbounds [2 x i32], ptr %7, i64 0, i64 0
  %9 = load i32, ptr %8, align 8, !tbaa !15
  %10 = add i32 %9, %5
  store i32 %10, ptr %8, align 8, !tbaa !15
  %11 = load ptr, ptr %3, align 8, !tbaa !4
  %12 = getelementptr inbounds nuw %struct.blake2s_state__, ptr %11, i32 0, i32 1
  %13 = getelementptr inbounds [2 x i32], ptr %12, i64 0, i64 0
  %14 = load i32, ptr %13, align 8, !tbaa !15
  %15 = load i32, ptr %4, align 4, !tbaa !15
  %16 = icmp ult i32 %14, %15
  %17 = zext i1 %16 to i32
  %18 = load ptr, ptr %3, align 8, !tbaa !4
  %19 = getelementptr inbounds nuw %struct.blake2s_state__, ptr %18, i32 0, i32 1
  %20 = getelementptr inbounds [2 x i32], ptr %19, i64 0, i64 1
  %21 = load i32, ptr %20, align 4, !tbaa !15
  %22 = add i32 %21, %17
  store i32 %22, ptr %20, align 4, !tbaa !15
  ret void
}

; Function Attrs: nounwind uwtable
define internal i32 @blake2s_is_lastblock(ptr noundef %0) #0 {
  %2 = alloca ptr, align 8
  store ptr %0, ptr %2, align 8, !tbaa !4
  %3 = load ptr, ptr %2, align 8, !tbaa !4
  %4 = getelementptr inbounds nuw %struct.blake2s_state__, ptr %3, i32 0, i32 2
  %5 = getelementptr inbounds [2 x i32], ptr %4, i64 0, i64 0
  %6 = load i32, ptr %5, align 8, !tbaa !15
  %7 = icmp ne i32 %6, 0
  %8 = zext i1 %7 to i32
  ret i32 %8
}

; Function Attrs: nounwind uwtable
define dso_local i32 @blake2s_final(ptr noundef %0, ptr noundef %1, i64 noundef %2) #0 {
  %4 = alloca i32, align 4
  %5 = alloca ptr, align 8
  %6 = alloca ptr, align 8
  %7 = alloca i64, align 8
  %8 = alloca [32 x i8], align 16
  %9 = alloca i64, align 8
  %10 = alloca i32, align 4
  store ptr %0, ptr %5, align 8, !tbaa !4
  store ptr %1, ptr %6, align 8, !tbaa !25
  store i64 %2, ptr %7, align 8, !tbaa !13
  call void @llvm.lifetime.start.p0(i64 32, ptr %8) #6
  call void @llvm.memset.p0.i64(ptr align 16 %8, i8 0, i64 32, i1 false)
  call void @llvm.lifetime.start.p0(i64 8, ptr %9) #6
  %11 = load ptr, ptr %6, align 8, !tbaa !25
  %12 = icmp eq ptr %11, null
  br i1 %12, label %19, label %13

13:                                               ; preds = %3
  %14 = load i64, ptr %7, align 8, !tbaa !13
  %15 = load ptr, ptr %5, align 8, !tbaa !4
  %16 = getelementptr inbounds nuw %struct.blake2s_state__, ptr %15, i32 0, i32 5
  %17 = load i64, ptr %16, align 8, !tbaa !22
  %18 = icmp ult i64 %14, %17
  br i1 %18, label %19, label %20

19:                                               ; preds = %13, %3
  store i32 -1, ptr %4, align 4
  store i32 1, ptr %10, align 4
  br label %68

20:                                               ; preds = %13
  %21 = load ptr, ptr %5, align 8, !tbaa !4
  %22 = call i32 @blake2s_is_lastblock(ptr noundef %21)
  %23 = icmp ne i32 %22, 0
  br i1 %23, label %24, label %25

24:                                               ; preds = %20
  store i32 -1, ptr %4, align 4
  store i32 1, ptr %10, align 4
  br label %68

25:                                               ; preds = %20
  %26 = load ptr, ptr %5, align 8, !tbaa !4
  %27 = load ptr, ptr %5, align 8, !tbaa !4
  %28 = getelementptr inbounds nuw %struct.blake2s_state__, ptr %27, i32 0, i32 4
  %29 = load i64, ptr %28, align 8, !tbaa !33
  %30 = trunc i64 %29 to i32
  call void @blake2s_increment_counter(ptr noundef %26, i32 noundef %30)
  %31 = load ptr, ptr %5, align 8, !tbaa !4
  call void @blake2s_set_lastblock(ptr noundef %31)
  %32 = load ptr, ptr %5, align 8, !tbaa !4
  %33 = getelementptr inbounds nuw %struct.blake2s_state__, ptr %32, i32 0, i32 3
  %34 = getelementptr inbounds [64 x i8], ptr %33, i64 0, i64 0
  %35 = load ptr, ptr %5, align 8, !tbaa !4
  %36 = getelementptr inbounds nuw %struct.blake2s_state__, ptr %35, i32 0, i32 4
  %37 = load i64, ptr %36, align 8, !tbaa !33
  %38 = getelementptr inbounds nuw i8, ptr %34, i64 %37
  %39 = load ptr, ptr %5, align 8, !tbaa !4
  %40 = getelementptr inbounds nuw %struct.blake2s_state__, ptr %39, i32 0, i32 4
  %41 = load i64, ptr %40, align 8, !tbaa !33
  %42 = sub i64 64, %41
  call void @llvm.memset.p0.i64(ptr align 1 %38, i8 0, i64 %42, i1 false)
  %43 = load ptr, ptr %5, align 8, !tbaa !4
  %44 = load ptr, ptr %5, align 8, !tbaa !4
  %45 = getelementptr inbounds nuw %struct.blake2s_state__, ptr %44, i32 0, i32 3
  %46 = getelementptr inbounds [64 x i8], ptr %45, i64 0, i64 0
  call void @blake2s_compress(ptr noundef %43, ptr noundef %46)
  store i64 0, ptr %9, align 8, !tbaa !13
  br label %47

47:                                               ; preds = %60, %25
  %48 = load i64, ptr %9, align 8, !tbaa !13
  %49 = icmp ult i64 %48, 8
  br i1 %49, label %50, label %63

50:                                               ; preds = %47
  %51 = getelementptr inbounds [32 x i8], ptr %8, i64 0, i64 0
  %52 = load i64, ptr %9, align 8, !tbaa !13
  %53 = mul i64 4, %52
  %54 = getelementptr inbounds nuw i8, ptr %51, i64 %53
  %55 = load ptr, ptr %5, align 8, !tbaa !4
  %56 = getelementptr inbounds nuw %struct.blake2s_state__, ptr %55, i32 0, i32 0
  %57 = load i64, ptr %9, align 8, !tbaa !13
  %58 = getelementptr inbounds nuw [8 x i32], ptr %56, i64 0, i64 %57
  %59 = load i32, ptr %58, align 4, !tbaa !15
  call void @store32(ptr noundef %54, i32 noundef %59)
  br label %60

60:                                               ; preds = %50
  %61 = load i64, ptr %9, align 8, !tbaa !13
  %62 = add i64 %61, 1
  store i64 %62, ptr %9, align 8, !tbaa !13
  br label %47, !llvm.loop !38

63:                                               ; preds = %47
  %64 = load ptr, ptr %6, align 8, !tbaa !25
  %65 = getelementptr inbounds [32 x i8], ptr %8, i64 0, i64 0
  %66 = load i64, ptr %7, align 8, !tbaa !13
  call void @llvm.memcpy.p0.p0.i64(ptr align 1 %64, ptr align 16 %65, i64 %66, i1 false)
  %67 = getelementptr inbounds [32 x i8], ptr %8, i64 0, i64 0
  call void @secure_zero_memory(ptr noundef %67, i64 noundef 32)
  store i32 0, ptr %4, align 4
  store i32 1, ptr %10, align 4
  br label %68

68:                                               ; preds = %63, %24, %19
  call void @llvm.lifetime.end.p0(i64 8, ptr %9) #6
  call void @llvm.lifetime.end.p0(i64 32, ptr %8) #6
  %69 = load i32, ptr %4, align 4
  ret i32 %69
}