; Function Attrs: nounwind uwtable
define dso_local range(i32 -1, 1) i32 @blake2s_final(ptr noundef captures(none) %0, ptr noundef writeonly %1, i64 noundef %2) local_unnamed_addr #3 {
  %4 = alloca [32 x i8], align 16
  call void @llvm.lifetime.start.p0(i64 32, ptr nonnull %4) #7
  call void @llvm.memset.p0.i64(ptr noundef nonnull align 16 dereferenceable(32) %4, i8 0, i64 32, i1 false)
  %5 = icmp eq ptr %1, null
  br i1 %5, label %50, label %6

6:                                                ; preds = %3
  %7 = getelementptr inbounds nuw i8, ptr %0, i64 120
  %8 = load i64, ptr %7, align 8, !tbaa !13
  %9 = icmp ult i64 %2, %8
  br i1 %9, label %50, label %10

10:                                               ; preds = %6
  %11 = getelementptr i8, ptr %0, i64 40
  %.val = load i32, ptr %11, align 8, !tbaa !4
  %.not22 = icmp eq i32 %.val, 0
  br i1 %.not22, label %12, label %50

12:                                               ; preds = %10
  %13 = getelementptr inbounds nuw i8, ptr %0, i64 112
  %14 = load i64, ptr %13, align 8, !tbaa !19
  %15 = trunc i64 %14 to i32
  %16 = getelementptr inbounds nuw i8, ptr %0, i64 32
  %17 = load i32, ptr %16, align 8, !tbaa !4
  %18 = add i32 %17, %15
  store i32 %18, ptr %16, align 8, !tbaa !4
  %19 = icmp ult i32 %18, %15
  %20 = zext i1 %19 to i32
  %21 = getelementptr inbounds nuw i8, ptr %0, i64 36
  %22 = load i32, ptr %21, align 4, !tbaa !4
  %23 = add i32 %22, %20
  store i32 %23, ptr %21, align 4, !tbaa !4
  %24 = getelementptr inbounds nuw i8, ptr %0, i64 128
  %25 = load i8, ptr %24, align 8, !tbaa !24
  %.not.i = icmp eq i8 %25, 0
  br i1 %.not.i, label %blake2s_set_lastblock.exit, label %26

26:                                               ; preds = %12
  %27 = getelementptr inbounds nuw i8, ptr %0, i64 44
  store i32 -1, ptr %27, align 4, !tbaa !4
  br label %blake2s_set_lastblock.exit

blake2s_set_lastblock.exit:                       ; preds = %12, %26
  store i32 -1, ptr %11, align 8, !tbaa !4
  %28 = getelementptr inbounds nuw i8, ptr %0, i64 48
  %29 = getelementptr inbounds nuw i8, ptr %28, i64 %14
  %30 = sub i64 64, %14
  tail call void @llvm.memset.p0.i64(ptr nonnull align 1 %29, i8 0, i64 %30, i1 false)
  tail call fastcc void @blake2s_compress(ptr noundef nonnull %0, ptr noundef nonnull %28)
  br label %31

31:                                               ; preds = %blake2s_set_lastblock.exit, %31
  %.023 = phi i64 [ 0, %blake2s_set_lastblock.exit ], [ %46, %31 ]
  %32 = shl nuw nsw i64 %.023, 2
  %33 = getelementptr inbounds nuw i8, ptr %4, i64 %32
  %34 = getelementptr inbounds nuw [8 x i32], ptr %0, i64 0, i64 %.023
  %35 = load i32, ptr %34, align 4, !tbaa !4
  %36 = trunc i32 %35 to i8
  store i8 %36, ptr %33, align 4, !tbaa !25
  %37 = lshr i32 %35, 8
  %38 = trunc i32 %37 to i8
  %39 = getelementptr inbounds nuw i8, ptr %33, i64 1
  store i8 %38, ptr %39, align 1, !tbaa !25
  %40 = lshr i32 %35, 16
  %41 = trunc i32 %40 to i8
  %42 = getelementptr inbounds nuw i8, ptr %33, i64 2
  store i8 %41, ptr %42, align 2, !tbaa !25
  %43 = lshr i32 %35, 24
  %44 = trunc nuw i32 %43 to i8
  %45 = getelementptr inbounds nuw i8, ptr %33, i64 3
  store i8 %44, ptr %45, align 1, !tbaa !25
  %46 = add nuw nsw i64 %.023, 1
  %exitcond.not = icmp eq i64 %46, 8
  br i1 %exitcond.not, label %47, label %31, !llvm.loop !26

47:                                               ; preds = %31
  call void @llvm.memcpy.p0.p0.i64(ptr nonnull align 1 %1, ptr nonnull align 16 %4, i64 %2, i1 false)
  %48 = load volatile ptr, ptr @secure_zero_memory.memset_v, align 8, !tbaa !20
  %49 = call ptr %48(ptr noundef nonnull %4, i32 noundef 0, i64 noundef 32) #7
  br label %50

50:                                               ; preds = %10, %3, %6, %47
  %.019 = phi i32 [ 0, %47 ], [ -1, %6 ], [ -1, %3 ], [ -1, %10 ]
  call void @llvm.lifetime.end.p0(i64 32, ptr nonnull %4) #7
  ret i32 %.019
}